target datalayout = "e-m:e-p270:32:32-p271:32:32-p272:64:64-i64:64-i128:128-f80:128-n8:16:32:64-S128"
target triple = "x86_64-pc-linux-gnu"

%struct.Qureg = type { i32, i32, i32, i64, i64, i32, i32, %struct.ComplexArray, %struct.ComplexArray, %struct.ComplexArray, ptr, ptr, ptr, ptr, ptr, ptr }
%struct.ComplexArray = type { ptr, ptr }

@__func__.measure = private unnamed_addr constant [8 x i8] c"measure\00", align 1

; Function Attrs: nounwind uwtable
define i32 @measure(ptr noundef byval(%struct.Qureg) align 8 %0, i32 noundef %1) #0 {
  %3 = alloca i32, align 4
  %4 = alloca i32, align 4
  %5 = alloca double, align 8
  store i32 %1, ptr %3, align 4, !tbaa !4
  %6 = load i32, ptr %3, align 4, !tbaa !4
  call void @validateTarget(ptr noundef byval(%struct.Qureg) align 8 %0, i32 noundef %6, ptr noundef @__func__.measure)
  call void @llvm.lifetime.start.p0(i64 4, ptr %4) #7
  call void @llvm.lifetime.start.p0(i64 8, ptr %5) #7
  %7 = getelementptr inbounds nuw %struct.Qureg, ptr %0, i32 0, i32 0
  %8 = load i32, ptr %7, align 8, !tbaa !13
  %9 = icmp ne i32 %8, 0
  br i1 %9, label %10, label %13

10:                                               ; preds = %2
  %11 = load i32, ptr %3, align 4, !tbaa !4
  %12 = call i32 @densmatr_measureWithStats(ptr noundef byval(%struct.Qureg) align 8 %0, i32 noundef %11, ptr noundef %5)
  store i32 %12, ptr %4, align 4, !tbaa !4
  br label %16

13:                                               ; preds = %2
  %14 = load i32, ptr %3, align 4, !tbaa !4
  %15 = call i32 @statevec_measureWithStats(ptr noundef byval(%struct.Qureg) align 8 %0, i32 noundef %14, ptr noundef %5)
  store i32 %15, ptr %4, align 4, !tbaa !4
  br label %16

16:                                               ; preds = %13, %10
  %17 = load i32, ptr %3, align 4, !tbaa !4
  call void @qasm_recordMeasurement(ptr noundef byval(%struct.Qureg) align 8 %0, i32 noundef %17)
  %18 = load i32, ptr %4, align 4, !tbaa !4
  call void @llvm.lifetime.end.p0(i64 8, ptr %5) #7
  call void @llvm.lifetime.end.p0(i64 4, ptr %4) #7
  ret i32 %18
}