; Function Attrs: nounwind uwtable
define i32 @measure(ptr noundef readonly byval(%struct.Qureg) align 8 captures(none) %0, i32 noundef %1) local_unnamed_addr #0 {
  %3 = alloca double, align 8
  tail call void @validateTarget(ptr noundef nonnull byval(%struct.Qureg) align 8 %0, i32 noundef %1, ptr noundef nonnull @__func__.measure) #17
  call void @llvm.lifetime.start.p0(i64 8, ptr nonnull %3) #17
  %4 = load i32, ptr %0, align 8, !tbaa !12
  %.not = icmp eq i32 %4, 0
  br i1 %.not, label %7, label %5

5:                                                ; preds = %2
  %6 = call i32 @densmatr_measureWithStats(ptr noundef nonnull byval(%struct.Qureg) align 8 %0, i32 noundef %1, ptr noundef nonnull %3) #17
  br label %9

7:                                                ; preds = %2
  %8 = call i32 @statevec_measureWithStats(ptr noundef nonnull byval(%struct.Qureg) align 8 %0, i32 noundef %1, ptr noundef nonnull %3) #17
  br label %9

9:                                                ; preds = %7, %5
  %.0 = phi i32 [ %6, %5 ], [ %8, %7 ]
  call void @qasm_recordMeasurement(ptr noundef nonnull byval(%struct.Qureg) align 8 %0, i32 noundef %1) #17
  call void @llvm.lifetime.end.p0(i64 8, ptr nonnull %3) #17
  ret i32 %.0
}